; Function Attrs: nounwind sspstrong uwtable
define internal i32 @quorum_co_preadv(ptr noundef %bs, i64 noundef %offset, i64 noundef %bytes, ptr noundef %qiov, i32 noundef %flags) #0 {
entry:
  %opaque = getelementptr inbounds nuw i8, ptr %bs, i64 24
  %0 = load ptr, ptr %opaque, align 8
  %call.i = tail call noalias dereferenceable_or_null(104) ptr @g_malloc_n(i64 noundef 1, i64 noundef 104) #18
  %call2.i = tail call ptr @qemu_coroutine_self() #17
  store ptr %bs, ptr %call.i, align 8
  %.compoundliteral.sroa.2.0..sroa_idx.i = getelementptr inbounds nuw i8, ptr %call.i, i64 8
  store ptr %call2.i, ptr %.compoundliteral.sroa.2.0..sroa_idx.i, align 8
  %.compoundliteral.sroa.3.0..sroa_idx.i = getelementptr inbounds nuw i8, ptr %call.i, i64 16
  store i64 %offset, ptr %.compoundliteral.sroa.3.0..sroa_idx.i, align 8
  %.compoundliteral.sroa.4.0..sroa_idx.i = getelementptr inbounds nuw i8, ptr %call.i, i64 24
  store i64 %bytes, ptr %.compoundliteral.sroa.4.0..sroa_idx.i, align 8
  %.compoundliteral.sroa.5.0..sroa_idx.i = getelementptr inbounds nuw i8, ptr %call.i, i64 32
  store i32 %flags, ptr %.compoundliteral.sroa.5.0..sroa_idx.i, align 8
  %.compoundliteral.sroa.61.0..sroa_idx.i = getelementptr inbounds nuw i8, ptr %call.i, i64 40
  store ptr %qiov, ptr %.compoundliteral.sroa.61.0..sroa_idx.i, align 8
  %.compoundliteral.sroa.7.0..sroa_idx.i = getelementptr inbounds nuw i8, ptr %call.i, i64 48
  %.compoundliteral.sroa.112.0..sroa_idx.i = getelementptr inbounds nuw i8, ptr %call.i, i64 72
  store ptr null, ptr %.compoundliteral.sroa.112.0..sroa_idx.i, align 8
  %.compoundliteral.sroa.12.0..sroa_idx.i = getelementptr inbounds nuw i8, ptr %call.i, i64 80
  %1 = getelementptr inbounds nuw i8, ptr %call.i, i64 56
  tail call void @llvm.memset.p0.i64(ptr noundef nonnull align 8 dereferenceable(12) %1, i8 0, i64 12, i1 false)
  store ptr @quorum_sha256_compare, ptr %.compoundliteral.sroa.12.0..sroa_idx.i, align 8
  %.compoundliteral.sroa.13.0..sroa_idx.i = getelementptr inbounds nuw i8, ptr %call.i, i64 88
  %.compoundliteral.sroa.143.0..sroa_idx.i = getelementptr inbounds nuw i8, ptr %call.i, i64 92
  store i32 0, ptr %.compoundliteral.sroa.143.0..sroa_idx.i, align 4
  %.compoundliteral.sroa.15.0..sroa_idx.i = getelementptr inbounds nuw i8, ptr %call.i, i64 96
  %num_children.i = getelementptr inbounds nuw i8, ptr %0, i64 8
  %2 = load i32, ptr %num_children.i, align 8
  %conv.i = sext i32 %2 to i64
  %call7.i = tail call noalias ptr @g_malloc0_n(i64 noundef %conv.i, i64 noundef 72) #18
  store ptr %call7.i, ptr %.compoundliteral.sroa.7.0..sroa_idx.i, align 8
  %3 = load i32, ptr %num_children.i, align 8
  %cmp16.i = icmp sgt i32 %3, 0
  br i1 %cmp16.i, label %for.body.i, label %quorum_aio_get.exit

for.body.i:                                       ; preds = %entry, %for.body.i
  %indvars.iv.i = phi i64 [ %indvars.iv.next.i, %for.body.i ], [ 0, %entry ]
  %4 = load ptr, ptr %.compoundliteral.sroa.7.0..sroa_idx.i, align 8
  %buf.i = getelementptr %struct.QuorumChildRequest, ptr %4, i64 %indvars.iv.i, i32 2
  store ptr null, ptr %buf.i, align 8
  %5 = load ptr, ptr %.compoundliteral.sroa.7.0..sroa_idx.i, align 8
  %ret.i = getelementptr %struct.QuorumChildRequest, ptr %5, i64 %indvars.iv.i, i32 3
  store i32 0, ptr %ret.i, align 8
  %6 = load ptr, ptr %.compoundliteral.sroa.7.0..sroa_idx.i, align 8
  %parent.i = getelementptr %struct.QuorumChildRequest, ptr %6, i64 %indvars.iv.i, i32 4
  store ptr %call.i, ptr %parent.i, align 8
  %indvars.iv.next.i = add nuw nsw i64 %indvars.iv.i, 1
  %7 = load i32, ptr %num_children.i, align 8
  %8 = sext i32 %7 to i64
  %cmp.i = icmp slt i64 %indvars.iv.next.i, %8
  br i1 %cmp.i, label %for.body.i, label %quorum_aio_get.exit, !llvm.loop !13

quorum_aio_get.exit:                              ; preds = %for.body.i, %entry
  store i8 1, ptr %.compoundliteral.sroa.13.0..sroa_idx.i, align 8
  store i32 0, ptr %.compoundliteral.sroa.15.0..sroa_idx.i, align 8
  %read_pattern = getelementptr inbounds nuw i8, ptr %0, i64 24
  %9 = load i32, ptr %read_pattern, align 8
  %cmp = icmp eq i32 %9, 0
  br i1 %cmp, label %if.then, label %if.else

if.then:                                          ; preds = %quorum_aio_get.exit
  %call1 = tail call i32 @read_quorum_children(ptr noundef nonnull %call.i)
  br label %if.end

if.else:                                          ; preds = %quorum_aio_get.exit
  %call2 = tail call i32 @read_fifo_child(ptr noundef nonnull %call.i)
  br label %if.end

if.end:                                           ; preds = %if.else, %if.then
  %ret.0 = phi i32 [ %call1, %if.then ], [ %call2, %if.else ]
  %10 = load ptr, ptr %.compoundliteral.sroa.7.0..sroa_idx.i, align 8
  tail call void @g_free(ptr noundef %10) #17
  tail call void @g_free(ptr noundef nonnull %call.i) #17
  ret i32 %ret.0
}